target datalayout = "e-m:e-p270:32:32-p271:32:32-p272:64:64-i64:64-i128:128-f80:128-n8:16:32:64-S128"
target triple = "x86_64-pc-linux-gnu"

%struct.UConverter = type { ptr, ptr, ptr, ptr, ptr, ptr, ptr, i32, i8, i8, i8, i8, i8, [7 x i8], i32, i32, i32, i32, i8, i8, i8, i8, i8, i8, i8, i8, [8 x i8], [32 x i8], [2 x i16], [2 x i16], [32 x i16], i32, [19 x i16], [31 x i8], i8, i8, i8, i32 }

; Function Attrs: mustprogress nounwind uwtable
define void @ucnv_toUWriteCodePoint_77(ptr noundef %0, i32 noundef %1, ptr noundef %2, ptr noundef %3, ptr noundef %4, i32 noundef %5, ptr noundef %6) #1 {
  %8 = alloca ptr, align 8
  %9 = alloca i32, align 4
  %10 = alloca ptr, align 8
  %11 = alloca ptr, align 8
  %12 = alloca ptr, align 8
  %13 = alloca i32, align 4
  %14 = alloca ptr, align 8
  %15 = alloca ptr, align 8
  %16 = alloca ptr, align 8
  %17 = alloca i8, align 1
  store ptr %0, ptr %8, align 8, !tbaa !3
  store i32 %1, ptr %9, align 4, !tbaa !19
  store ptr %2, ptr %10, align 8, !tbaa !41
  store ptr %3, ptr %11, align 8, !tbaa !39
  store ptr %4, ptr %12, align 8, !tbaa !24
  store i32 %5, ptr %13, align 4, !tbaa !19
  store ptr %6, ptr %14, align 8, !tbaa !12
  call void @llvm.lifetime.start.p0(i64 8, ptr %15) #3
  call void @llvm.lifetime.start.p0(i64 8, ptr %16) #3
  %18 = load ptr, ptr %10, align 8, !tbaa !41
  %19 = load ptr, ptr %18, align 8, !tbaa !39
  store ptr %19, ptr %15, align 8, !tbaa !39
  %20 = load ptr, ptr %15, align 8, !tbaa !39
  %21 = load ptr, ptr %11, align 8, !tbaa !39
  %22 = icmp ult ptr %20, %21
  br i1 %22, label %23, label %76

23:                                               ; preds = %7
  %24 = load i32, ptr %9, align 4, !tbaa !19
  %25 = icmp sle i32 %24, 65535
  br i1 %25, label %26, label %31

26:                                               ; preds = %23
  %27 = load i32, ptr %9, align 4, !tbaa !19
  %28 = trunc i32 %27 to i16
  %29 = load ptr, ptr %15, align 8, !tbaa !39
  %30 = getelementptr inbounds nuw i16, ptr %29, i32 1
  store ptr %30, ptr %15, align 8, !tbaa !39
  store i16 %28, ptr %29, align 2, !tbaa !43
  store i32 -1, ptr %9, align 4, !tbaa !19
  br label %52

31:                                               ; preds = %23
  %32 = load i32, ptr %9, align 4, !tbaa !19
  %33 = ashr i32 %32, 10
  %34 = add nsw i32 %33, 55232
  %35 = trunc i32 %34 to i16
  %36 = load ptr, ptr %15, align 8, !tbaa !39
  %37 = getelementptr inbounds nuw i16, ptr %36, i32 1
  store ptr %37, ptr %15, align 8, !tbaa !39
  store i16 %35, ptr %36, align 2, !tbaa !43
  %38 = load i32, ptr %9, align 4, !tbaa !19
  %39 = and i32 %38, 1023
  %40 = or i32 %39, 56320
  %41 = trunc i32 %40 to i16
  %42 = zext i16 %41 to i32
  store i32 %42, ptr %9, align 4, !tbaa !19
  %43 = load ptr, ptr %15, align 8, !tbaa !39
  %44 = load ptr, ptr %11, align 8, !tbaa !39
  %45 = icmp ult ptr %43, %44
  br i1 %45, label %46, label %51

46:                                               ; preds = %31
  %47 = load i32, ptr %9, align 4, !tbaa !19
  %48 = trunc i32 %47 to i16
  %49 = load ptr, ptr %15, align 8, !tbaa !39
  %50 = getelementptr inbounds nuw i16, ptr %49, i32 1
  store ptr %50, ptr %15, align 8, !tbaa !39
  store i16 %48, ptr %49, align 2, !tbaa !43
  store i32 -1, ptr %9, align 4, !tbaa !19
  br label %51

51:                                               ; preds = %46, %31
  br label %52

52:                                               ; preds = %51, %26
  %53 = load ptr, ptr %12, align 8, !tbaa !24
  %54 = icmp ne ptr %53, null
  br i1 %54, label %55, label %75

55:                                               ; preds = %52
  %56 = load ptr, ptr %12, align 8, !tbaa !24
  %57 = load ptr, ptr %56, align 8, !tbaa !26
  store ptr %57, ptr %16, align 8, !tbaa !26
  %58 = icmp ne ptr %57, null
  br i1 %58, label %59, label %75

59:                                               ; preds = %55
  %60 = load i32, ptr %13, align 4, !tbaa !19
  %61 = load ptr, ptr %16, align 8, !tbaa !26
  %62 = getelementptr inbounds nuw i32, ptr %61, i32 1
  store ptr %62, ptr %16, align 8, !tbaa !26
  store i32 %60, ptr %61, align 4, !tbaa !19
  %63 = load ptr, ptr %10, align 8, !tbaa !41
  %64 = load ptr, ptr %63, align 8, !tbaa !39
  %65 = getelementptr inbounds i16, ptr %64, i64 1
  %66 = load ptr, ptr %15, align 8, !tbaa !39
  %67 = icmp ult ptr %65, %66
  br i1 %67, label %68, label %72

68:                                               ; preds = %59
  %69 = load i32, ptr %13, align 4, !tbaa !19
  %70 = load ptr, ptr %16, align 8, !tbaa !26
  %71 = getelementptr inbounds nuw i32, ptr %70, i32 1
  store ptr %71, ptr %16, align 8, !tbaa !26
  store i32 %69, ptr %70, align 4, !tbaa !19
  br label %72

72:                                               ; preds = %68, %59
  %73 = load ptr, ptr %16, align 8, !tbaa !26
  %74 = load ptr, ptr %12, align 8, !tbaa !24
  store ptr %73, ptr %74, align 8, !tbaa !26
  br label %75

75:                                               ; preds = %72, %55, %52
  br label %76

76:                                               ; preds = %75, %7
  %77 = load ptr, ptr %15, align 8, !tbaa !39
  %78 = load ptr, ptr %10, align 8, !tbaa !41
  store ptr %77, ptr %78, align 8, !tbaa !39
  %79 = load i32, ptr %9, align 4, !tbaa !19
  %80 = icmp sge i32 %79, 0
  br i1 %80, label %81, label %126

81:                                               ; preds = %76
  %82 = load ptr, ptr %8, align 8, !tbaa !3
  %83 = icmp ne ptr %82, null
  br i1 %83, label %84, label %124

84:                                               ; preds = %81
  call void @llvm.lifetime.start.p0(i64 1, ptr %17) #3
  store i8 0, ptr %17, align 1, !tbaa !28
  br label %85

85:                                               ; preds = %84
  %86 = load i32, ptr %9, align 4, !tbaa !19
  %87 = icmp ule i32 %86, 65535
  br i1 %87, label %88, label %97

88:                                               ; preds = %85
  %89 = load i32, ptr %9, align 4, !tbaa !19
  %90 = trunc i32 %89 to i16
  %91 = load ptr, ptr %8, align 8, !tbaa !3
  %92 = getelementptr inbounds nuw %struct.UConverter, ptr %91, i32 0, i32 30
  %93 = load i8, ptr %17, align 1, !tbaa !28
  %94 = add i8 %93, 1
  store i8 %94, ptr %17, align 1, !tbaa !28
  %95 = sext i8 %93 to i64
  %96 = getelementptr inbounds [32 x i16], ptr %92, i64 0, i64 %95
  store i16 %90, ptr %96, align 2, !tbaa !43
  br label %118

97:                                               ; preds = %85
  %98 = load i32, ptr %9, align 4, !tbaa !19
  %99 = ashr i32 %98, 10
  %100 = add nsw i32 %99, 55232
  %101 = trunc i32 %100 to i16
  %102 = load ptr, ptr %8, align 8, !tbaa !3
  %103 = getelementptr inbounds nuw %struct.UConverter, ptr %102, i32 0, i32 30
  %104 = load i8, ptr %17, align 1, !tbaa !28
  %105 = add i8 %104, 1
  store i8 %105, ptr %17, align 1, !tbaa !28
  %106 = sext i8 %104 to i64
  %107 = getelementptr inbounds [32 x i16], ptr %103, i64 0, i64 %106
  store i16 %101, ptr %107, align 2, !tbaa !43
  %108 = load i32, ptr %9, align 4, !tbaa !19
  %109 = and i32 %108, 1023
  %110 = or i32 %109, 56320
  %111 = trunc i32 %110 to i16
  %112 = load ptr, ptr %8, align 8, !tbaa !3
  %113 = getelementptr inbounds nuw %struct.UConverter, ptr %112, i32 0, i32 30
  %114 = load i8, ptr %17, align 1, !tbaa !28
  %115 = add i8 %114, 1
  store i8 %115, ptr %17, align 1, !tbaa !28
  %116 = sext i8 %114 to i64
  %117 = getelementptr inbounds [32 x i16], ptr %113, i64 0, i64 %116
  store i16 %111, ptr %117, align 2, !tbaa !43
  br label %118

118:                                              ; preds = %97, %88
  br label %119

119:                                              ; preds = %118
  br label %120

120:                                              ; preds = %119
  %121 = load i8, ptr %17, align 1, !tbaa !28
  %122 = load ptr, ptr %8, align 8, !tbaa !3
  %123 = getelementptr inbounds nuw %struct.UConverter, ptr %122, i32 0, i32 23
  store i8 %121, ptr %123, align 1, !tbaa !47
  call void @llvm.lifetime.end.p0(i64 1, ptr %17) #3
  br label %124

124:                                              ; preds = %120, %81
  %125 = load ptr, ptr %14, align 8, !tbaa !12
  store i32 15, ptr %125, align 4, !tbaa !37
  br label %126

126:                                              ; preds = %124, %76
  call void @llvm.lifetime.end.p0(i64 8, ptr %16) #3
  call void @llvm.lifetime.end.p0(i64 8, ptr %15) #3
  ret void
}