; Function Attrs: mustprogress nofree norecurse nosync nounwind willreturn memory(write, argmem: readwrite, inaccessiblemem: none) uwtable
define void @ucnv_toUWriteCodePoint_77(ptr noundef writeonly %0, i32 noundef %1, ptr noundef captures(none) %2, ptr noundef readnone %3, ptr noundef %4, i32 noundef %5, ptr noundef writeonly captures(none) %6) local_unnamed_addr #2 {
  %8 = load ptr, ptr %2, align 8, !tbaa !27
  %9 = icmp ult ptr %8, %3
  br i1 %9, label %10, label %33

10:                                               ; preds = %7
  %11 = icmp slt i32 %1, 65536
  br i1 %11, label %12, label %14

12:                                               ; preds = %10
  %13 = trunc i32 %1 to i16
  store i16 %13, ptr %8, align 2, !tbaa !29
  br label %24

14:                                               ; preds = %10
  %15 = lshr i32 %1, 10
  %16 = trunc i32 %15 to i16
  %17 = add i16 %16, -10304
  %.ptr = getelementptr inbounds nuw i8, ptr %8, i64 2
  store i16 %17, ptr %8, align 2, !tbaa !29
  %18 = trunc i32 %1 to i16
  %19 = and i16 %18, 1023
  %20 = or disjoint i16 %19, -9216
  %21 = zext i16 %20 to i32
  %22 = icmp ult ptr %.ptr, %3
  br i1 %22, label %23, label %24

23:                                               ; preds = %14
  store i16 %20, ptr %.ptr, align 2, !tbaa !29
  br label %24

24:                                               ; preds = %14, %23, %12
  %.142 = phi i32 [ -1, %12 ], [ -1, %23 ], [ %21, %14 ]
  %25 = phi i1 [ false, %12 ], [ true, %23 ], [ false, %14 ]
  %.1.idx = phi i64 [ 2, %12 ], [ 4, %23 ], [ 2, %14 ]
  %.1.ptr = getelementptr inbounds nuw i8, ptr %8, i64 %.1.idx
  %.not = icmp eq ptr %4, null
  br i1 %.not, label %33, label %26

26:                                               ; preds = %24
  %27 = load ptr, ptr %4, align 8, !tbaa !12
  %.not53 = icmp eq ptr %27, null
  br i1 %.not53, label %33, label %28

28:                                               ; preds = %26
  %29 = getelementptr inbounds nuw i8, ptr %27, i64 4
  store i32 %5, ptr %27, align 4, !tbaa !17
  br i1 %25, label %30, label %32

30:                                               ; preds = %28
  %31 = getelementptr inbounds nuw i8, ptr %27, i64 8
  store i32 %5, ptr %29, align 4, !tbaa !17
  br label %32

32:                                               ; preds = %30, %28
  %.039 = phi ptr [ %31, %30 ], [ %29, %28 ]
  store ptr %.039, ptr %4, align 8, !tbaa !12
  br label %33

33:                                               ; preds = %24, %26, %32, %7
  %.041 = phi i32 [ %.142, %32 ], [ %.142, %26 ], [ %.142, %24 ], [ %1, %7 ]
  %.040 = phi ptr [ %.1.ptr, %32 ], [ %.1.ptr, %26 ], [ %.1.ptr, %24 ], [ %8, %7 ]
  store ptr %.040, ptr %2, align 8, !tbaa !27
  %34 = icmp sgt i32 %.041, -1
  br i1 %34, label %35, label %52

35:                                               ; preds = %33
  %.not54 = icmp eq ptr %0, null
  br i1 %.not54, label %51, label %36

36:                                               ; preds = %35
  %37 = icmp samesign ult i32 %.041, 65536
  br i1 %37, label %38, label %40

38:                                               ; preds = %36
  %39 = trunc nuw i32 %.041 to i16
  br label %48

40:                                               ; preds = %36
  %41 = lshr i32 %.041, 10
  %42 = trunc i32 %41 to i16
  %43 = add i16 %42, -10304
  %44 = trunc i32 %.041 to i16
  %45 = and i16 %44, 1023
  %46 = or disjoint i16 %45, -9216
  %47 = getelementptr inbounds nuw i8, ptr %0, i64 146
  store i16 %46, ptr %47, align 2, !tbaa !29
  br label %48

48:                                               ; preds = %40, %38
  %.sink = phi i16 [ %39, %38 ], [ %43, %40 ]
  %.0 = phi i8 [ 1, %38 ], [ 2, %40 ]
  %49 = getelementptr inbounds nuw i8, ptr %0, i64 144
  store i16 %.sink, ptr %49, align 2, !tbaa !29
  %50 = getelementptr inbounds nuw i8, ptr %0, i64 93
  store i8 %.0, ptr %50, align 1, !tbaa !33
  br label %51

51:                                               ; preds = %48, %35
  store i32 15, ptr %6, align 4, !tbaa !25
  br label %52

52:                                               ; preds = %51, %33
  ret void
}